; ModuleID = '35/920.c'
source_filename = "35/920.c"
target datalayout = "e-m:e-p270:32:32-p271:32:32-p272:64:64-i64:64-f80:128-n8:16:32:64-S128"
target triple = "x86_64-pc-linux-gnu"

@.str = private unnamed_addr constant [7 x i8] c"%d,%d\0A\00", align 1
@.str.1 = private unnamed_addr constant [3 x i8] c"%d\00", align 1
@.str.2 = private unnamed_addr constant [6 x i8] c"%d+%d\00", align 1
@.str.3 = private unnamed_addr constant [4 x i8] c"No\0A\00", align 1

; Function Attrs: noinline nounwind uwtable
define dso_local i32 @main() #0 {
  %1 = alloca i32, align 4
  %2 = alloca i32, align 4
  %3 = alloca i32, align 4
  %4 = alloca i32, align 4
  %5 = alloca i32, align 4
  %6 = alloca i32, align 4
  %7 = alloca i32, align 4
  %8 = alloca [8 x [8 x i32]], align 16
  %9 = alloca i32, align 4
  %10 = alloca i32, align 4
  %11 = alloca i32, align 4
  store i32 0, i32* %1, align 4
  store i32 0, i32* %9, align 4
  store i32 0, i32* %10, align 4
  store i32 0, i32* %11, align 4
  %12 = call i32 (i8*, ...) @__isoc99_scanf(i8* getelementptr inbounds ([7 x i8], [7 x i8]* @.str, i64 0, i64 0), i32* %6, i32* %7)
  store i32 0, i32* %2, align 4
  br label %13

13:                                               ; preds = %34, %0
  %14 = load i32, i32* %2, align 4
  %15 = load i32, i32* %6, align 4
  %16 = icmp slt i32 %14, %15
  br i1 %16, label %17, label %37

17:                                               ; preds = %13
  store i32 0, i32* %3, align 4
  br label %18

18:                                               ; preds = %30, %17
  %19 = load i32, i32* %3, align 4
  %20 = load i32, i32* %7, align 4
  %21 = icmp slt i32 %19, %20
  br i1 %21, label %22, label %33

22:                                               ; preds = %18
  %23 = load i32, i32* %2, align 4
  %24 = sext i32 %23 to i64
  %25 = getelementptr inbounds [8 x [8 x i32]], [8 x [8 x i32]]* %8, i64 0, i64 %24
  %26 = load i32, i32* %3, align 4
  %27 = sext i32 %26 to i64
  %28 = getelementptr inbounds [8 x i32], [8 x i32]* %25, i64 0, i64 %27
  %29 = call i32 (i8*, ...) @__isoc99_scanf(i8* getelementptr inbounds ([3 x i8], [3 x i8]* @.str.1, i64 0, i64 0), i32* %28)
  br label %30

30:                                               ; preds = %22
  %31 = load i32, i32* %3, align 4
  %32 = add nsw i32 %31, 1
  store i32 %32, i32* %3, align 4
  br label %18

33:                                               ; preds = %18
  br label %34

34:                                               ; preds = %33
  %35 = load i32, i32* %2, align 4
  %36 = add nsw i32 %35, 1
  store i32 %36, i32* %2, align 4
  br label %13

37:                                               ; preds = %13
  store i32 0, i32* %2, align 4
  br label %38

38:                                               ; preds = %129, %37
  %39 = load i32, i32* %2, align 4
  %40 = load i32, i32* %6, align 4
  %41 = icmp slt i32 %39, %40
  br i1 %41, label %42, label %132

42:                                               ; preds = %38
  store i32 0, i32* %3, align 4
  br label %43

43:                                               ; preds = %125, %42
  %44 = load i32, i32* %3, align 4
  %45 = load i32, i32* %7, align 4
  %46 = icmp slt i32 %44, %45
  br i1 %46, label %47, label %128

47:                                               ; preds = %43
  store i32 0, i32* %10, align 4
  store i32 0, i32* %9, align 4
  store i32 0, i32* %4, align 4
  br label %48

48:                                               ; preds = %74, %47
  %49 = load i32, i32* %4, align 4
  %50 = load i32, i32* %7, align 4
  %51 = icmp slt i32 %49, %50
  br i1 %51, label %52, label %77

52:                                               ; preds = %48
  %53 = load i32, i32* %2, align 4
  %54 = sext i32 %53 to i64
  %55 = getelementptr inbounds [8 x [8 x i32]], [8 x [8 x i32]]* %8, i64 0, i64 %54
  %56 = load i32, i32* %3, align 4
  %57 = sext i32 %56 to i64
  %58 = getelementptr inbounds [8 x i32], [8 x i32]* %55, i64 0, i64 %57
  %59 = load i32, i32* %58, align 4
  %60 = load i32, i32* %2, align 4
  %61 = sext i32 %60 to i64
  %62 = getelementptr inbounds [8 x [8 x i32]], [8 x [8 x i32]]* %8, i64 0, i64 %61
  %63 = load i32, i32* %4, align 4
  %64 = sext i32 %63 to i64
  %65 = getelementptr inbounds [8 x i32], [8 x i32]* %62, i64 0, i64 %64
  %66 = load i32, i32* %65, align 4
  %67 = icmp sgt i32 %59, %66
  br i1 %67, label %68, label %71

68:                                               ; preds = %52
  %69 = load i32, i32* %10, align 4
  %70 = add nsw i32 %69, 1
  store i32 %70, i32* %10, align 4
  br label %73

71:                                               ; preds = %52
  %72 = load i32, i32* %10, align 4
  store i32 %72, i32* %10, align 4
  br label %73

73:                                               ; preds = %71, %68
  br label %74

74:                                               ; preds = %73
  %75 = load i32, i32* %4, align 4
  %76 = add nsw i32 %75, 1
  store i32 %76, i32* %4, align 4
  br label %48

77:                                               ; preds = %48
  store i32 0, i32* %5, align 4
  br label %78

78:                                               ; preds = %104, %77
  %79 = load i32, i32* %5, align 4
  %80 = load i32, i32* %6, align 4
  %81 = icmp slt i32 %79, %80
  br i1 %81, label %82, label %107

82:                                               ; preds = %78
  %83 = load i32, i32* %2, align 4
  %84 = sext i32 %83 to i64
  %85 = getelementptr inbounds [8 x [8 x i32]], [8 x [8 x i32]]* %8, i64 0, i64 %84
  %86 = load i32, i32* %3, align 4
  %87 = sext i32 %86 to i64
  %88 = getelementptr inbounds [8 x i32], [8 x i32]* %85, i64 0, i64 %87
  %89 = load i32, i32* %88, align 4
  %90 = load i32, i32* %5, align 4
  %91 = sext i32 %90 to i64
  %92 = getelementptr inbounds [8 x [8 x i32]], [8 x [8 x i32]]* %8, i64 0, i64 %91
  %93 = load i32, i32* %3, align 4
  %94 = sext i32 %93 to i64
  %95 = getelementptr inbounds [8 x i32], [8 x i32]* %92, i64 0, i64 %94
  %96 = load i32, i32* %95, align 4
  %97 = icmp slt i32 %89, %96
  br i1 %97, label %98, label %101

98:                                               ; preds = %82
  %99 = load i32, i32* %9, align 4
  %100 = add nsw i32 %99, 1
  store i32 %100, i32* %9, align 4
  br label %103

101:                                              ; preds = %82
  %102 = load i32, i32* %9, align 4
  store i32 %102, i32* %9, align 4
  br label %103

103:                                              ; preds = %101, %98
  br label %104

104:                                              ; preds = %103
  %105 = load i32, i32* %5, align 4
  %106 = add nsw i32 %105, 1
  store i32 %106, i32* %5, align 4
  br label %78

107:                                              ; preds = %78
  %108 = load i32, i32* %9, align 4
  %109 = load i32, i32* %6, align 4
  %110 = sub nsw i32 %109, 1
  %111 = icmp eq i32 %108, %110
  br i1 %111, label %112, label %121

112:                                              ; preds = %107
  %113 = load i32, i32* %10, align 4
  %114 = load i32, i32* %7, align 4
  %115 = sub nsw i32 %114, 1
  %116 = icmp eq i32 %113, %115
  br i1 %116, label %117, label %121

117:                                              ; preds = %112
  %118 = load i32, i32* %2, align 4
  %119 = load i32, i32* %3, align 4
  %120 = call i32 (i8*, ...) @printf(i8* getelementptr inbounds ([6 x i8], [6 x i8]* @.str.2, i64 0, i64 0), i32 %118, i32 %119)
  br label %124

121:                                              ; preds = %112, %107
  %122 = load i32, i32* %11, align 4
  %123 = add nsw i32 %122, 1
  store i32 %123, i32* %11, align 4
  br label %124

124:                                              ; preds = %121, %117
  br label %125

125:                                              ; preds = %124
  %126 = load i32, i32* %3, align 4
  %127 = add nsw i32 %126, 1
  store i32 %127, i32* %3, align 4
  br label %43

128:                                              ; preds = %43
  br label %129

129:                                              ; preds = %128
  %130 = load i32, i32* %2, align 4
  %131 = add nsw i32 %130, 1
  store i32 %131, i32* %2, align 4
  br label %38

132:                                              ; preds = %38
  %133 = load i32, i32* %11, align 4
  %134 = load i32, i32* %6, align 4
  %135 = load i32, i32* %7, align 4
  %136 = mul nsw i32 %134, %135
  %137 = icmp eq i32 %133, %136
  br i1 %137, label %138, label %140

138:                                              ; preds = %132
  %139 = call i32 (i8*, ...) @printf(i8* getelementptr inbounds ([4 x i8], [4 x i8]* @.str.3, i64 0, i64 0))
  br label %140

140:                                              ; preds = %138, %132
  ret i32 0
}

declare dso_local i32 @__isoc99_scanf(i8*, ...) #1

declare dso_local i32 @printf(i8*, ...) #1


!llvm.module.flags = !{!0}
!llvm.ident = !{!1}

!0 = !{i32 1, !"wchar_size", i32 4}
!1 = !{!"clang version 10.0.0-4ubuntu1 "}
